(dp0
S'red_val_c'
p1
(g1
S'Constants'
p2
I250
tp3
sS'red_sat_c'
p4
(g4
g2
I150
tp5
sS'green_val_c'
p6
(g6
g2
I350
tp7
sS'green_sat_c'
p8
(g8
g2
I250
tp9
sS'yellow_val_c'
p10
(g10
g2
I140
tp11
sS'yellow_sat_c'
p12
(g12
g2
I100
tp13
sS'red_hue_c'
p14
(g14
g2
I15
tp15
sS'yellow_hue_c'
p16
(g16
g2
I10
tp17
sS'red_hue'
p18
(g18
g2
I175
tp19
sS'yellow_hue'
p20
(g20
g2
I23
tp21
sS'green_hue_c'
p22
(g22
g2
I15
tp23
sS'green_hue'
p24
(g24
g2
I50
tp25
s.