(dp0
S'red_val_c'
p1
(g1
S'Constants'
p2
I250
tp3
sS'red_sat_c'
p4
(g4
g2
I150
tp5
sS'green_val_c'
p6
(g6
g2
I250
tp7
sS'green_sat_c'
p8
(g8
g2
I150
tp9
sS'yellow_val_c'
p10
(g10
g2
I250
tp11
sS'yellow_sat_c'
p12
(g12
g2
I150
tp13
sS'red_hue_c'
p14
(g14
g2
I15
tp15
sS'blue_hue_c'
p16
(g16
g2
I15
tp17
sS'yellow_hue_c'
p18
(g18
g2
I15
tp19
sS'red_hue'
p20
(g20
g2
I175
tp21
sS'yellow_hue'
p22
(g22
g2
I30
tp23
sS'blue_val_c'
p24
(g24
g2
I250
tp25
sS'green_hue_c'
p26
(g26
g2
I15
tp27
sS'blue_hue'
p28
(g28
g2
I114
tp29
sS'blue_sat_c'
p30
(g30
g2
I150
tp31
sS'green_hue'
p32
(g32
g2
I52
tp33
s.